target datalayout = "e-m:e-p270:32:32-p271:32:32-p272:64:64-i64:64-i128:128-f80:128-n8:16:32:64-S128"
target triple = "x86_64-pc-linux-gnu"

%struct.H5C_cache_entry_t = type { ptr, i64, i64, ptr, i8, ptr, i8, i8, i8, i8, i32, i8, i8, i8, i8, i8, i32, ptr, i32, i32, i32, i32, i32, i8, i8, ptr, ptr, ptr, ptr, ptr, ptr, i8, i32, i8, i64, ptr, i64, i64, i32, i8, i32, i32, i8, ptr, ptr, ptr }
%struct.H5HF_direct_t = type { %struct.H5C_cache_entry_t, ptr, ptr, ptr, i32, i64, i64, ptr, ptr, i64, i64 }

@H5HF_init_g = external global i8, align 1
@H5_libterm_g = external global i8, align 1

; Function Attrs: nounwind uwtable
define internal i32 @H5HF__cache_dblock_serialize(ptr noundef %0, ptr noundef %1, i64 noundef %2, ptr noundef %3) #0 {
  %5 = alloca ptr, align 8
  %6 = alloca ptr, align 8
  %7 = alloca i64, align 8
  %8 = alloca ptr, align 8
  %9 = alloca ptr, align 8
  %10 = alloca i32, align 4
  store ptr %0, ptr %5, align 8, !tbaa !80
  store ptr %1, ptr %6, align 8, !tbaa !3
  store i64 %2, ptr %7, align 8, !tbaa !40
  store ptr %3, ptr %8, align 8, !tbaa !3
  call void @llvm.lifetime.start.p0(i64 8, ptr %9) #8
  %11 = load ptr, ptr %8, align 8, !tbaa !3
  store ptr %11, ptr %9, align 8, !tbaa !169
  call void @llvm.lifetime.start.p0(i64 4, ptr %10) #8
  store i32 0, ptr %10, align 4, !tbaa !43
  %12 = load i8, ptr @H5HF_init_g, align 1, !tbaa !11, !range !13, !noundef !14
  %13 = trunc i8 %12 to i1
  br i1 %13, label %18, label %14

14:                                               ; preds = %4
  %15 = load i8, ptr @H5_libterm_g, align 1, !tbaa !11, !range !13, !noundef !14
  %16 = trunc i8 %15 to i1
  %17 = xor i1 %16, true
  br label %18

18:                                               ; preds = %14, %4
  %19 = phi i1 [ true, %4 ], [ %17, %14 ]
  %20 = xor i1 %19, true
  %21 = xor i1 %20, true
  %22 = zext i1 %21 to i32
  %23 = sext i32 %22 to i64
  %24 = call i64 @llvm.expect.i64(i64 %23, i64 1)
  %25 = icmp ne i64 %24, 0
  br i1 %25, label %26, label %51

26:                                               ; preds = %18
  %27 = load ptr, ptr %6, align 8, !tbaa !3
  %28 = load ptr, ptr %9, align 8, !tbaa !169
  %29 = getelementptr inbounds nuw %struct.H5HF_direct_t, ptr %28, i32 0, i32 8
  %30 = load ptr, ptr %29, align 8, !tbaa !183
  %31 = load ptr, ptr %9, align 8, !tbaa !169
  %32 = getelementptr inbounds nuw %struct.H5HF_direct_t, ptr %31, i32 0, i32 9
  %33 = load i64, ptr %32, align 8, !tbaa !184
  call void @llvm.memcpy.p0.p0.i64(ptr align 1 %27, ptr align 1 %30, i64 %33, i1 false)
  %34 = load ptr, ptr %9, align 8, !tbaa !169
  %35 = getelementptr inbounds nuw %struct.H5HF_direct_t, ptr %34, i32 0, i32 8
  %36 = load ptr, ptr %35, align 8, !tbaa !183
  %37 = load ptr, ptr %9, align 8, !tbaa !169
  %38 = getelementptr inbounds nuw %struct.H5HF_direct_t, ptr %37, i32 0, i32 7
  %39 = load ptr, ptr %38, align 8, !tbaa !175
  %40 = icmp ne ptr %36, %39
  br i1 %40, label %41, label %46

41:                                               ; preds = %26
  %42 = load ptr, ptr %9, align 8, !tbaa !169
  %43 = getelementptr inbounds nuw %struct.H5HF_direct_t, ptr %42, i32 0, i32 8
  %44 = load ptr, ptr %43, align 8, !tbaa !183
  %45 = call ptr @H5MM_xfree(ptr noundef %44)
  br label %46

46:                                               ; preds = %41, %26
  %47 = load ptr, ptr %9, align 8, !tbaa !169
  %48 = getelementptr inbounds nuw %struct.H5HF_direct_t, ptr %47, i32 0, i32 8
  store ptr null, ptr %48, align 8, !tbaa !183
  %49 = load ptr, ptr %9, align 8, !tbaa !169
  %50 = getelementptr inbounds nuw %struct.H5HF_direct_t, ptr %49, i32 0, i32 9
  store i64 0, ptr %50, align 8, !tbaa !184
  br label %51

51:                                               ; preds = %46, %18
  %52 = load i32, ptr %10, align 4, !tbaa !43
  call void @llvm.lifetime.end.p0(i64 4, ptr %10) #8
  call void @llvm.lifetime.end.p0(i64 8, ptr %9) #8
  ret i32 %52
}