; Function Attrs: nounwind uwtable
define internal noundef i32 @H5HF__cache_dblock_serialize(ptr readnone captures(none) %0, ptr noundef writeonly captures(none) %1, i64 %2, ptr noundef captures(none) %3) #0 {
  %5 = load i8, ptr @H5HF_init_g, align 1, !tbaa !3, !range !7, !noundef !8
  %6 = trunc nuw i8 %5 to i1
  %7 = load i8, ptr @H5_libterm_g, align 1, !range !7
  %8 = trunc nuw i8 %7 to i1
  %9 = xor i1 %8, true
  %10 = select i1 %6, i1 true, i1 %9
  br i1 %10, label %11, label %22, !prof !9

11:                                               ; preds = %4
  %12 = getelementptr inbounds nuw i8, ptr %3, i64 304
  %13 = load ptr, ptr %12, align 8, !tbaa !161
  %14 = getelementptr inbounds nuw i8, ptr %3, i64 312
  %15 = load i64, ptr %14, align 8, !tbaa !162
  tail call void @llvm.memcpy.p0.p0.i64(ptr align 1 %1, ptr align 1 %13, i64 %15, i1 false)
  %16 = load ptr, ptr %12, align 8, !tbaa !161
  %17 = getelementptr inbounds nuw i8, ptr %3, i64 296
  %18 = load ptr, ptr %17, align 8, !tbaa !153
  %.not = icmp eq ptr %16, %18
  br i1 %.not, label %21, label %19

19:                                               ; preds = %11
  %20 = tail call ptr @H5MM_xfree(ptr noundef %16) #9
  br label %21

21:                                               ; preds = %19, %11
  tail call void @llvm.memset.p0.i64(ptr noundef nonnull align 8 dereferenceable(16) %12, i8 0, i64 16, i1 false)
  br label %22

22:                                               ; preds = %21, %4
  ret i32 0
}